target datalayout = "e-m:e-p270:32:32-p271:32:32-p272:64:64-i64:64-i128:128-f80:128-n8:16:32:64-S128"
target triple = "x86_64-pc-linux-gnu"

%struct.GDBUserState = type { i32, ptr, i32, i8, [16 x i64], i8, i32, [2 x i32], i32, i32, [128 x i8], i64 }

@gdbserver_user_state = internal global %struct.GDBUserState zeroinitializer, align 8
@.str.19 = private unnamed_addr constant [3 x i8] c"OK\00", align 1

; Function Attrs: nounwind sspstrong uwtable
define dso_local zeroext i1 @gdb_handle_set_thread_user(i32 noundef %0, i32 noundef %1) #0 {
  %3 = alloca i1, align 1
  %4 = alloca i32, align 4
  %5 = alloca i32, align 4
  store i32 %0, ptr %4, align 4
  store i32 %1, ptr %5, align 4
  %6 = load i32, ptr getelementptr inbounds nuw (%struct.GDBUserState, ptr @gdbserver_user_state, i32 0, i32 6), align 4
  %7 = icmp eq i32 %6, 1
  br i1 %7, label %8, label %18

8:                                                ; preds = %2
  %9 = load i32, ptr %4, align 4
  %10 = load i32, ptr getelementptr inbounds nuw (%struct.GDBUserState, ptr @gdbserver_user_state, i32 0, i32 8), align 8
  %11 = icmp eq i32 %9, %10
  br i1 %11, label %12, label %18

12:                                               ; preds = %8
  %13 = load i32, ptr %5, align 4
  %14 = load i32, ptr getelementptr inbounds nuw (%struct.GDBUserState, ptr @gdbserver_user_state, i32 0, i32 9), align 4
  %15 = icmp eq i32 %13, %14
  br i1 %15, label %16, label %18

16:                                               ; preds = %12
  store i32 2, ptr getelementptr inbounds nuw (%struct.GDBUserState, ptr @gdbserver_user_state, i32 0, i32 6), align 4
  %17 = call i32 @gdb_put_packet(ptr noundef @.str.19)
  store i1 true, ptr %3, align 1
  br label %19

18:                                               ; preds = %12, %8, %2
  store i1 false, ptr %3, align 1
  br label %19

19:                                               ; preds = %18, %16
  %20 = load i1, ptr %3, align 1
  ret i1 %20
}