; Function Attrs: nounwind sspstrong uwtable
define dso_local noundef zeroext i1 @gdb_handle_set_thread_user(i32 noundef %0, i32 noundef %1) local_unnamed_addr #0 {
  %3 = load i32, ptr getelementptr inbounds nuw (i8, ptr @gdbserver_user_state, i64 156), align 4
  %4 = icmp eq i32 %3, 1
  %5 = load i32, ptr getelementptr inbounds nuw (i8, ptr @gdbserver_user_state, i64 168), align 8
  %6 = icmp eq i32 %0, %5
  %or.cond = select i1 %4, i1 %6, i1 false
  %7 = load i32, ptr getelementptr inbounds nuw (i8, ptr @gdbserver_user_state, i64 172), align 4
  %8 = icmp eq i32 %1, %7
  %or.cond4 = select i1 %or.cond, i1 %8, i1 false
  br i1 %or.cond4, label %9, label %11

9:                                                ; preds = %2
  store i32 2, ptr getelementptr inbounds nuw (i8, ptr @gdbserver_user_state, i64 156), align 4
  %10 = tail call i32 @gdb_put_packet(ptr noundef nonnull @.str.19) #16
  br label %11

11:                                               ; preds = %2, %9
  ret i1 %or.cond4
}